target datalayout = "e-m:e-p270:32:32-p271:32:32-p272:64:64-i64:64-i128:128-f80:128-n8:16:32:64-S128"
target triple = "x86_64-pc-linux-gnu"

%struct._lv_global_t = type { i8, i8, %struct.lv_ll_t, ptr, ptr, %struct.lv_ll_t, i8, i32, i32, ptr, %struct.lv_ll_t, ptr, %struct.lv_ll_t, ptr, ptr, i32, ptr, i8, i32, i32, ptr, i32, %struct.lv_timer_state_t, %struct.lv_anim_state_t, %struct.lv_tick_state_t, %struct._lv_draw_buf_handlers_t, %struct._lv_draw_buf_handlers_t, %struct._lv_draw_buf_handlers_t, %struct.lv_ll_t, ptr, ptr, %struct.lv_draw_global_info_t, [4 x %struct.lv_draw_sw_mask_radius_circle_dsc_t], ptr, ptr, ptr, %struct.lv_tlsf_state_t, %struct.lv_ll_t, ptr, ptr, %struct.lv_style_t, i64, ptr, i32, ptr }
%struct.lv_timer_state_t = type { %struct.lv_ll_t, i8, i8, i8, i8, i32, i8, i32, i32, i32, i32, ptr, ptr }
%struct.lv_anim_state_t = type { i8, i8, ptr, %struct.lv_ll_t }
%struct.lv_tick_state_t = type { i32, i8, ptr, ptr }
%struct._lv_draw_buf_handlers_t = type { ptr, ptr, ptr, ptr, ptr, ptr }
%struct.lv_draw_global_info_t = type { ptr, i32, i32, i32, i32, i8 }
%struct.lv_draw_sw_mask_radius_circle_dsc_t = type { ptr, ptr, ptr, ptr, i32, i32, i32 }
%struct.lv_tlsf_state_t = type { ptr, i64, i64, %struct.lv_ll_t }
%struct.lv_ll_t = type { i32, ptr, ptr }
%struct.lv_style_t = type { ptr, i32, i8 }
%struct._lv_freetype_context_t = type { ptr, %struct.lv_ll_t, ptr, i32, ptr }

@lv_global = external global %struct._lv_global_t, align 8

; Function Attrs: nounwind uwtable
define internal void @lv_freetype_cleanup(ptr noundef %0) #0 {
  %2 = alloca ptr, align 8
  store ptr %0, ptr %2, align 8, !tbaa !20
  br label %3

3:                                                ; preds = %1
  %4 = load ptr, ptr %2, align 8, !tbaa !20
  %5 = icmp ne ptr %4, null
  br i1 %5, label %10, label %6

6:                                                ; preds = %3
  br label %7

7:                                                ; preds = %6
  br label %8

8:                                                ; preds = %7
  br label %9

9:                                                ; preds = %8, %9
  br label %9

10:                                               ; preds = %3
  br label %11

11:                                               ; preds = %10
  %12 = load ptr, ptr %2, align 8, !tbaa !20
  %13 = getelementptr inbounds nuw %struct._lv_freetype_context_t, ptr %12, i32 0, i32 4
  %14 = load ptr, ptr %13, align 8, !tbaa !23
  %15 = icmp ne ptr %14, null
  br i1 %15, label %16, label %22

16:                                               ; preds = %11
  %17 = load ptr, ptr %2, align 8, !tbaa !20
  %18 = getelementptr inbounds nuw %struct._lv_freetype_context_t, ptr %17, i32 0, i32 4
  %19 = load ptr, ptr %18, align 8, !tbaa !23
  call void @lv_cache_destroy(ptr noundef %19, ptr noundef null)
  %20 = load ptr, ptr %2, align 8, !tbaa !20
  %21 = getelementptr inbounds nuw %struct._lv_freetype_context_t, ptr %20, i32 0, i32 4
  store ptr null, ptr %21, align 8, !tbaa !23
  br label %22

22:                                               ; preds = %16, %11
  %23 = load ptr, ptr %2, align 8, !tbaa !20
  %24 = getelementptr inbounds nuw %struct._lv_freetype_context_t, ptr %23, i32 0, i32 0
  %25 = load ptr, ptr %24, align 8, !tbaa !28
  %26 = icmp ne ptr %25, null
  br i1 %26, label %27, label %34

27:                                               ; preds = %22
  %28 = load ptr, ptr %2, align 8, !tbaa !20
  %29 = getelementptr inbounds nuw %struct._lv_freetype_context_t, ptr %28, i32 0, i32 0
  %30 = load ptr, ptr %29, align 8, !tbaa !28
  %31 = call i32 @FT_Done_FreeType(ptr noundef %30)
  %32 = load ptr, ptr %2, align 8, !tbaa !20
  %33 = getelementptr inbounds nuw %struct._lv_freetype_context_t, ptr %32, i32 0, i32 0
  store ptr null, ptr %33, align 8, !tbaa !28
  br label %34

34:                                               ; preds = %27, %22
  ret void
}

; Function Attrs: nounwind uwtable
define ptr @lv_freetype_get_context() #0 {
  %1 = load ptr, ptr getelementptr inbounds nuw (%struct._lv_global_t, ptr @lv_global, i32 0, i32 38), align 8, !tbaa !7
  ret ptr %1
}

; Function Attrs: nounwind uwtable
define void @lv_freetype_uninit() #0 {
  %1 = alloca ptr, align 8
  call void @llvm.lifetime.start.p0(i64 8, ptr %1) #7
  %2 = call ptr @lv_freetype_get_context()
  store ptr %2, ptr %1, align 8, !tbaa !20
  %3 = load ptr, ptr %1, align 8, !tbaa !20
  call void @lv_freetype_cleanup(ptr noundef %3)
  %4 = load ptr, ptr getelementptr inbounds nuw (%struct._lv_global_t, ptr @lv_global, i32 0, i32 38), align 8, !tbaa !7
  call void @lv_free(ptr noundef %4)
  store ptr null, ptr getelementptr inbounds nuw (%struct._lv_global_t, ptr @lv_global, i32 0, i32 38), align 8, !tbaa !7
  call void @llvm.lifetime.end.p0(i64 8, ptr %1) #7
  ret void
}