; Function Attrs: nounwind uwtable
define void @lv_freetype_uninit() local_unnamed_addr #0 {
  %1 = load ptr, ptr getelementptr inbounds nuw (i8, ptr @lv_global, i64 856), align 8, !tbaa !3
  %.not.i = icmp eq ptr %1, null
  br i1 %.not.i, label %.preheader.i, label %2

.preheader.i:                                     ; preds = %0, %.preheader.i
  br label %.preheader.i

2:                                                ; preds = %0
  %3 = getelementptr inbounds nuw i8, ptr %1, i64 48
  %4 = load ptr, ptr %3, align 8, !tbaa !21
  %.not9.i = icmp eq ptr %4, null
  br i1 %.not9.i, label %6, label %5

5:                                                ; preds = %2
  tail call void @lv_cache_destroy(ptr noundef nonnull %4, ptr noundef null) #8
  store ptr null, ptr %3, align 8, !tbaa !21
  br label %6

6:                                                ; preds = %5, %2
  %7 = load ptr, ptr %1, align 8, !tbaa !26
  %.not10.i = icmp eq ptr %7, null
  br i1 %.not10.i, label %lv_freetype_cleanup.exit, label %8

8:                                                ; preds = %6
  %9 = tail call i32 @FT_Done_FreeType(ptr noundef nonnull %7) #8
  store ptr null, ptr %1, align 8, !tbaa !26
  br label %lv_freetype_cleanup.exit

lv_freetype_cleanup.exit:                         ; preds = %6, %8
  %10 = load ptr, ptr getelementptr inbounds nuw (i8, ptr @lv_global, i64 856), align 8, !tbaa !3
  tail call void @lv_free(ptr noundef %10) #8
  store ptr null, ptr getelementptr inbounds nuw (i8, ptr @lv_global, i64 856), align 8, !tbaa !3
  ret void
}